target datalayout = "e-m:e-p270:32:32-p271:32:32-p272:64:64-i64:64-i128:128-f80:128-n8:16:32:64-S128"
target triple = "x86_64-pc-linux-gnu"

%struct.fsck_options = type { ptr, ptr, i32, i32, ptr, %struct.oidset, %struct.oidset, %struct.oidset, %struct.oidset, %struct.oidset, ptr }
%struct.oidset = type { %struct.kh_oid_set }
%struct.kh_oid_set = type { i32, i32, i32, i32, ptr, ptr, ptr }
%struct.__va_list_tag = type { i32, i32, ptr, ptr }
%struct.fsck_object_report = type { ptr, i32 }

; Function Attrs: nounwind uwtable
define internal i32 @object_on_skiplist(ptr noundef %0, ptr noundef %1) #0 {
  %3 = alloca ptr, align 8
  %4 = alloca ptr, align 8
  store ptr %0, ptr %3, align 8, !tbaa !24
  store ptr %1, ptr %4, align 8, !tbaa !69
  %5 = load ptr, ptr %3, align 8, !tbaa !24
  %6 = icmp ne ptr %5, null
  br i1 %6, label %7, label %16

7:                                                ; preds = %2
  %8 = load ptr, ptr %4, align 8, !tbaa !69
  %9 = icmp ne ptr %8, null
  br i1 %9, label %10, label %16

10:                                               ; preds = %7
  %11 = load ptr, ptr %3, align 8, !tbaa !24
  %12 = getelementptr inbounds nuw %struct.fsck_options, ptr %11, i32 0, i32 5
  %13 = load ptr, ptr %4, align 8, !tbaa !69
  %14 = call i32 @oidset_contains(ptr noundef %12, ptr noundef %13)
  %15 = icmp ne i32 %14, 0
  br label %16

16:                                               ; preds = %10, %7, %2
  %17 = phi i1 [ false, %7 ], [ false, %2 ], [ %15, %10 ]
  %18 = zext i1 %17 to i32
  ret i32 %18
}

; Function Attrs: nounwind uwtable
define internal i32 @report(ptr noundef %0, ptr noundef %1, i32 noundef %2, i32 noundef %3, ptr noundef %4, ...) #0 {
  %6 = alloca i32, align 4
  %7 = alloca ptr, align 8
  %8 = alloca ptr, align 8
  %9 = alloca i32, align 4
  %10 = alloca i32, align 4
  %11 = alloca ptr, align 8
  %12 = alloca [1 x %struct.__va_list_tag], align 16
  %13 = alloca %struct.fsck_object_report, align 8
  %14 = alloca i32, align 4
  %15 = alloca i32, align 4
  store ptr %0, ptr %7, align 8, !tbaa !24
  store ptr %1, ptr %8, align 8, !tbaa !69
  store i32 %2, ptr %9, align 4, !tbaa !11
  store i32 %3, ptr %10, align 4, !tbaa !11
  store ptr %4, ptr %11, align 8, !tbaa !9
  call void @llvm.lifetime.start.p0(i64 24, ptr %12) #11
  call void @llvm.lifetime.start.p0(i64 16, ptr %13) #11
  %16 = getelementptr inbounds nuw %struct.fsck_object_report, ptr %13, i32 0, i32 0
  %17 = load ptr, ptr %8, align 8, !tbaa !69
  store ptr %17, ptr %16, align 8, !tbaa !120
  %18 = getelementptr inbounds nuw %struct.fsck_object_report, ptr %13, i32 0, i32 1
  %19 = load i32, ptr %9, align 4, !tbaa !11
  store i32 %19, ptr %18, align 8, !tbaa !122
  %20 = getelementptr i8, ptr %13, i64 12
  call void @llvm.memset.p0.i64(ptr align 4 %20, i8 0, i64 4, i1 false)
  call void @llvm.lifetime.start.p0(i64 4, ptr %14) #11
  %21 = load ptr, ptr %7, align 8, !tbaa !24
  %22 = load ptr, ptr %8, align 8, !tbaa !69
  %23 = call i32 @object_on_skiplist(ptr noundef %21, ptr noundef %22)
  %24 = icmp ne i32 %23, 0
  br i1 %24, label %25, label %26

25:                                               ; preds = %5
  store i32 0, ptr %6, align 4
  store i32 1, ptr %15, align 4
  br label %35

26:                                               ; preds = %5
  %27 = getelementptr inbounds [1 x %struct.__va_list_tag], ptr %12, i64 0, i64 0
  call void @llvm.va_start.p0(ptr %27)
  %28 = load ptr, ptr %7, align 8, !tbaa !24
  %29 = load i32, ptr %10, align 4, !tbaa !11
  %30 = load ptr, ptr %11, align 8, !tbaa !9
  %31 = getelementptr inbounds [1 x %struct.__va_list_tag], ptr %12, i64 0, i64 0
  %32 = call i32 @fsck_vreport(ptr noundef %28, ptr noundef %13, i32 noundef %29, ptr noundef %30, ptr noundef %31)
  store i32 %32, ptr %14, align 4, !tbaa !11
  %33 = getelementptr inbounds [1 x %struct.__va_list_tag], ptr %12, i64 0, i64 0
  call void @llvm.va_end.p0(ptr %33)
  %34 = load i32, ptr %14, align 4, !tbaa !11
  store i32 %34, ptr %6, align 4
  store i32 1, ptr %15, align 4
  br label %35

35:                                               ; preds = %26, %25
  call void @llvm.lifetime.end.p0(i64 4, ptr %14) #11
  call void @llvm.lifetime.end.p0(i64 16, ptr %13) #11
  call void @llvm.lifetime.end.p0(i64 24, ptr %12) #11
  %36 = load i32, ptr %6, align 4
  ret i32 %36
}