; Function Attrs: nounwind uwtable
define internal i32 @report(ptr noundef %0, ptr noundef %1, i32 noundef %2, i32 noundef range(i32 0, 66) %3, ptr noundef %4, ...) unnamed_addr #0 {
  %6 = alloca [1 x %struct.__va_list_tag], align 16
  %7 = alloca %struct.fsck_object_report, align 8
  call void @llvm.lifetime.start.p0(i64 24, ptr nonnull %6) #16
  call void @llvm.lifetime.start.p0(i64 16, ptr nonnull %7) #16
  store ptr %1, ptr %7, align 8, !tbaa !99
  %8 = getelementptr inbounds nuw i8, ptr %7, i64 8
  store i32 %2, ptr %8, align 8, !tbaa !101
  %9 = getelementptr inbounds nuw i8, ptr %7, i64 12
  store i32 0, ptr %9, align 4
  %10 = icmp ne ptr %0, null
  %11 = icmp ne ptr %1, null
  %or.cond.i = and i1 %10, %11
  br i1 %or.cond.i, label %object_on_skiplist.exit, label %object_on_skiplist.exit.thread

object_on_skiplist.exit:                          ; preds = %5
  %12 = getelementptr inbounds nuw i8, ptr %0, i64 32
  %13 = tail call i32 @oidset_contains(ptr noundef nonnull %12, ptr noundef nonnull %1) #16
  %.not9 = icmp eq i32 %13, 0
  br i1 %.not9, label %object_on_skiplist.exit.thread, label %15

object_on_skiplist.exit.thread:                   ; preds = %5, %object_on_skiplist.exit
  call void @llvm.va_start.p0(ptr nonnull %6)
  %14 = call fastcc i32 @fsck_vreport(ptr noundef %0, ptr noundef nonnull %7, i32 noundef %3, ptr noundef %4, ptr noundef %6)
  call void @llvm.va_end.p0(ptr nonnull %6)
  br label %15

15:                                               ; preds = %object_on_skiplist.exit, %object_on_skiplist.exit.thread
  %.0 = phi i32 [ %14, %object_on_skiplist.exit.thread ], [ 0, %object_on_skiplist.exit ]
  call void @llvm.lifetime.end.p0(i64 16, ptr nonnull %7) #16
  call void @llvm.lifetime.end.p0(i64 24, ptr nonnull %6) #16
  ret i32 %.0
}